; Function Attrs: nounwind uwtable
define internal fastcc ptr @GetPrivateRefCountEntry(i32 noundef %0, i1 noundef zeroext %1) unnamed_addr #0 {
  %3 = alloca i8, align 1
  %4 = alloca i32, align 4
  %5 = alloca i8, align 1
  store i32 %0, ptr %4, align 4
  br label %7

6:                                                ; preds = %7
  %indvars.iv.next = add nuw nsw i64 %indvars.iv, 1
  %exitcond.not = icmp eq i64 %indvars.iv.next, 8
  br i1 %exitcond.not, label %11, label %7, !llvm.loop !10

7:                                                ; preds = %2, %6
  %indvars.iv = phi i64 [ 0, %2 ], [ %indvars.iv.next, %6 ]
  %8 = getelementptr inbounds nuw [8 x %struct.PrivateRefCountEntry], ptr @PrivateRefCountArray, i64 0, i64 %indvars.iv
  %9 = load i32, ptr %8, align 8
  %10 = icmp eq i32 %9, %0
  br i1 %10, label %.loopexit.loopexit, label %6

11:                                               ; preds = %6
  %12 = load i32, ptr @PrivateRefCountOverflowed, align 4
  %13 = icmp eq i32 %12, 0
  br i1 %13, label %.loopexit, label %14

14:                                               ; preds = %11
  %15 = load ptr, ptr @PrivateRefCountHash, align 8
  %16 = call ptr @hash_search(ptr noundef %15, ptr noundef nonnull %4, i32 noundef 0, ptr noundef null) #16
  %17 = icmp ne ptr %16, null
  %brmerge.not = and i1 %1, %17
  br i1 %brmerge.not, label %18, label %.loopexit

18:                                               ; preds = %14
  call void @llvm.lifetime.start.p0(i64 1, ptr nonnull %5) #16
  %19 = load ptr, ptr @ReservedRefCountEntry, align 8
  %.not.i = icmp eq ptr %19, null
  br i1 %.not.i, label %.critedge.i, label %ReservePrivateRefCountEntry.exit

20:                                               ; preds = %.critedge.i
  %indvars.iv.next.i = add nuw nsw i64 %indvars.iv.i, 1
  %exitcond.not.i = icmp eq i64 %indvars.iv.next.i, 8
  br i1 %exitcond.not.i, label %25, label %.critedge.i, !llvm.loop !8

.critedge.i:                                      ; preds = %18, %20
  %indvars.iv.i = phi i64 [ %indvars.iv.next.i, %20 ], [ 0, %18 ]
  %21 = getelementptr inbounds nuw [8 x %struct.PrivateRefCountEntry], ptr @PrivateRefCountArray, i64 0, i64 %indvars.iv.i
  %22 = load i32, ptr %21, align 8
  %.not8.i = icmp eq i32 %22, 0
  br i1 %.not8.i, label %23, label %20

23:                                               ; preds = %.critedge.i
  %24 = getelementptr inbounds nuw [8 x %struct.PrivateRefCountEntry], ptr @PrivateRefCountArray, i64 0, i64 %indvars.iv.i
  br label %ReservePrivateRefCountEntry.exit

25:                                               ; preds = %20
  call void @llvm.lifetime.start.p0(i64 1, ptr nonnull %3) #16
  %26 = load i32, ptr @PrivateRefCountClock, align 4
  %27 = add i32 %26, 1
  store i32 %27, ptr @PrivateRefCountClock, align 4
  %28 = and i32 %26, 7
  %29 = zext nneg i32 %28 to i64
  %30 = getelementptr inbounds nuw [8 x %struct.PrivateRefCountEntry], ptr @PrivateRefCountArray, i64 0, i64 %29
  store ptr %30, ptr @ReservedRefCountEntry, align 8
  %31 = load ptr, ptr @PrivateRefCountHash, align 8
  %32 = call ptr @hash_search(ptr noundef %31, ptr noundef nonnull %30, i32 noundef 1, ptr noundef nonnull %3) #16
  %33 = load ptr, ptr @ReservedRefCountEntry, align 8
  %34 = getelementptr inbounds nuw i8, ptr %33, i64 4
  %35 = load i32, ptr %34, align 4
  %36 = getelementptr inbounds nuw i8, ptr %32, i64 4
  store i32 %35, ptr %36, align 4
  store i32 0, ptr %33, align 4
  store i32 0, ptr %34, align 4
  %37 = load i32, ptr @PrivateRefCountOverflowed, align 4
  %38 = add i32 %37, 1
  store i32 %38, ptr @PrivateRefCountOverflowed, align 4
  call void @llvm.lifetime.end.p0(i64 1, ptr nonnull %3) #16
  br label %ReservePrivateRefCountEntry.exit

ReservePrivateRefCountEntry.exit:                 ; preds = %18, %23, %25
  %39 = phi ptr [ %19, %18 ], [ %24, %23 ], [ %33, %25 ]
  store ptr null, ptr @ReservedRefCountEntry, align 8
  %40 = load i32, ptr %4, align 4
  store i32 %40, ptr %39, align 4
  %41 = getelementptr inbounds nuw i8, ptr %16, i64 4
  %42 = load i32, ptr %41, align 4
  %43 = getelementptr inbounds nuw i8, ptr %39, i64 4
  store i32 %42, ptr %43, align 4
  %44 = load ptr, ptr @PrivateRefCountHash, align 8
  %45 = call ptr @hash_search(ptr noundef %44, ptr noundef nonnull %4, i32 noundef 2, ptr noundef nonnull %5) #16
  %46 = load i32, ptr @PrivateRefCountOverflowed, align 4
  %47 = add i32 %46, -1
  store i32 %47, ptr @PrivateRefCountOverflowed, align 4
  call void @llvm.lifetime.end.p0(i64 1, ptr nonnull %5) #16
  br label %.loopexit

.loopexit.loopexit:                               ; preds = %7
  %48 = getelementptr inbounds nuw [8 x %struct.PrivateRefCountEntry], ptr @PrivateRefCountArray, i64 0, i64 %indvars.iv
  br label %.loopexit

.loopexit:                                        ; preds = %.loopexit.loopexit, %14, %11, %ReservePrivateRefCountEntry.exit
  %.0 = phi ptr [ %39, %ReservePrivateRefCountEntry.exit ], [ null, %11 ], [ %16, %14 ], [ %48, %.loopexit.loopexit ]
  ret ptr %.0
}